target datalayout = "e-m:e-p270:32:32-p271:32:32-p272:64:64-i64:64-i128:128-f80:128-n8:16:32:64-S128"
target triple = "x86_64-pc-linux-gnu"

@ff_log2_tab = external constant [256 x i8], align 16

; Function Attrs: alwaysinline nounwind willreturn memory(none) uwtable
define internal i32 @ff_log2_c(i32 noundef %0) #3 {
  %2 = alloca i32, align 4
  %3 = alloca i32, align 4
  store i32 %0, ptr %2, align 4, !tbaa !9
  call void @llvm.lifetime.start.p0(i64 4, ptr %3) #8
  store i32 0, ptr %3, align 4, !tbaa !9
  %4 = load i32, ptr %2, align 4, !tbaa !9
  %5 = and i32 %4, -65536
  %6 = icmp ne i32 %5, 0
  br i1 %6, label %7, label %12

7:                                                ; preds = %1
  %8 = load i32, ptr %2, align 4, !tbaa !9
  %9 = lshr i32 %8, 16
  store i32 %9, ptr %2, align 4, !tbaa !9
  %10 = load i32, ptr %3, align 4, !tbaa !9
  %11 = add nsw i32 %10, 16
  store i32 %11, ptr %3, align 4, !tbaa !9
  br label %12

12:                                               ; preds = %7, %1
  %13 = load i32, ptr %2, align 4, !tbaa !9
  %14 = and i32 %13, 65280
  %15 = icmp ne i32 %14, 0
  br i1 %15, label %16, label %21

16:                                               ; preds = %12
  %17 = load i32, ptr %2, align 4, !tbaa !9
  %18 = lshr i32 %17, 8
  store i32 %18, ptr %2, align 4, !tbaa !9
  %19 = load i32, ptr %3, align 4, !tbaa !9
  %20 = add nsw i32 %19, 8
  store i32 %20, ptr %3, align 4, !tbaa !9
  br label %21

21:                                               ; preds = %16, %12
  %22 = load i32, ptr %2, align 4, !tbaa !9
  %23 = zext i32 %22 to i64
  %24 = getelementptr inbounds nuw [256 x i8], ptr @ff_log2_tab, i64 0, i64 %23
  %25 = load i8, ptr %24, align 1, !tbaa !152
  %26 = zext i8 %25 to i32
  %27 = load i32, ptr %3, align 4, !tbaa !9
  %28 = add nsw i32 %27, %26
  store i32 %28, ptr %3, align 4, !tbaa !9
  %29 = load i32, ptr %3, align 4, !tbaa !9
  call void @llvm.lifetime.end.p0(i64 4, ptr %3) #8
  ret i32 %29
}

; Function Attrs: alwaysinline nounwind uwtable
define internal void @pred_planar_12(ptr noundef %0, ptr noundef %1, ptr noundef %2, i32 noundef %3, i32 noundef %4, i64 noundef %5) #4 {
  %7 = alloca ptr, align 8
  %8 = alloca ptr, align 8
  %9 = alloca ptr, align 8
  %10 = alloca i32, align 4
  %11 = alloca i32, align 4
  %12 = alloca i64, align 8
  %13 = alloca i32, align 4
  %14 = alloca i32, align 4
  %15 = alloca ptr, align 8
  %16 = alloca ptr, align 8
  %17 = alloca ptr, align 8
  %18 = alloca i32, align 4
  %19 = alloca i32, align 4
  %20 = alloca i32, align 4
  %21 = alloca i32, align 4
  %22 = alloca i32, align 4
  %23 = alloca i32, align 4
  %24 = alloca i32, align 4
  store ptr %0, ptr %7, align 8, !tbaa !144
  store ptr %1, ptr %8, align 8, !tbaa !144
  store ptr %2, ptr %9, align 8, !tbaa !144
  store i32 %3, ptr %10, align 4, !tbaa !9
  store i32 %4, ptr %11, align 4, !tbaa !9
  store i64 %5, ptr %12, align 8, !tbaa !146
  call void @llvm.lifetime.start.p0(i64 4, ptr %13) #8
  call void @llvm.lifetime.start.p0(i64 4, ptr %14) #8
  call void @llvm.lifetime.start.p0(i64 8, ptr %15) #8
  %25 = load ptr, ptr %7, align 8, !tbaa !144
  store ptr %25, ptr %15, align 8, !tbaa !142
  call void @llvm.lifetime.start.p0(i64 8, ptr %16) #8
  %26 = load ptr, ptr %8, align 8, !tbaa !144
  store ptr %26, ptr %16, align 8, !tbaa !142
  call void @llvm.lifetime.start.p0(i64 8, ptr %17) #8
  %27 = load ptr, ptr %9, align 8, !tbaa !144
  store ptr %27, ptr %17, align 8, !tbaa !142
  call void @llvm.lifetime.start.p0(i64 4, ptr %18) #8
  %28 = load i32, ptr %10, align 4, !tbaa !9
  %29 = call i32 @ff_log2_c(i32 noundef %28) #9
  store i32 %29, ptr %18, align 4, !tbaa !9
  call void @llvm.lifetime.start.p0(i64 4, ptr %19) #8
  %30 = load i32, ptr %11, align 4, !tbaa !9
  %31 = call i32 @ff_log2_c(i32 noundef %30) #9
  store i32 %31, ptr %19, align 4, !tbaa !9
  call void @llvm.lifetime.start.p0(i64 4, ptr %20) #8
  %32 = load i32, ptr %10, align 4, !tbaa !9
  %33 = load i32, ptr %11, align 4, !tbaa !9
  %34 = mul nsw i32 %32, %33
  store i32 %34, ptr %20, align 4, !tbaa !9
  call void @llvm.lifetime.start.p0(i64 4, ptr %21) #8
  %35 = load i32, ptr %18, align 4, !tbaa !9
  %36 = load i32, ptr %19, align 4, !tbaa !9
  %37 = add nsw i32 %35, %36
  %38 = add nsw i32 %37, 1
  store i32 %38, ptr %21, align 4, !tbaa !9
  store i32 0, ptr %14, align 4, !tbaa !9
  br label %39

39:                                               ; preds = %117, %6
  %40 = load i32, ptr %14, align 4, !tbaa !9
  %41 = load i32, ptr %11, align 4, !tbaa !9
  %42 = icmp slt i32 %40, %41
  br i1 %42, label %43, label %120

43:                                               ; preds = %39
  store i32 0, ptr %13, align 4, !tbaa !9
  br label %44

44:                                               ; preds = %113, %43
  %45 = load i32, ptr %13, align 4, !tbaa !9
  %46 = load i32, ptr %10, align 4, !tbaa !9
  %47 = icmp slt i32 %45, %46
  br i1 %47, label %48, label %116

48:                                               ; preds = %44
  call void @llvm.lifetime.start.p0(i64 4, ptr %22) #8
  %49 = load i32, ptr %11, align 4, !tbaa !9
  %50 = sub nsw i32 %49, 1
  %51 = load i32, ptr %14, align 4, !tbaa !9
  %52 = sub nsw i32 %50, %51
  %53 = load ptr, ptr %16, align 8, !tbaa !142
  %54 = load i32, ptr %13, align 4, !tbaa !9
  %55 = sext i32 %54 to i64
  %56 = getelementptr inbounds i16, ptr %53, i64 %55
  %57 = load i16, ptr %56, align 2, !tbaa !148
  %58 = zext i16 %57 to i32
  %59 = mul nsw i32 %52, %58
  %60 = load i32, ptr %14, align 4, !tbaa !9
  %61 = add nsw i32 %60, 1
  %62 = load ptr, ptr %17, align 8, !tbaa !142
  %63 = load i32, ptr %11, align 4, !tbaa !9
  %64 = sext i32 %63 to i64
  %65 = getelementptr inbounds i16, ptr %62, i64 %64
  %66 = load i16, ptr %65, align 2, !tbaa !148
  %67 = zext i16 %66 to i32
  %68 = mul nsw i32 %61, %67
  %69 = add nsw i32 %59, %68
  %70 = load i32, ptr %18, align 4, !tbaa !9
  %71 = shl i32 %69, %70
  store i32 %71, ptr %22, align 4, !tbaa !9
  call void @llvm.lifetime.start.p0(i64 4, ptr %23) #8
  %72 = load i32, ptr %10, align 4, !tbaa !9
  %73 = sub nsw i32 %72, 1
  %74 = load i32, ptr %13, align 4, !tbaa !9
  %75 = sub nsw i32 %73, %74
  %76 = load ptr, ptr %17, align 8, !tbaa !142
  %77 = load i32, ptr %14, align 4, !tbaa !9
  %78 = sext i32 %77 to i64
  %79 = getelementptr inbounds i16, ptr %76, i64 %78
  %80 = load i16, ptr %79, align 2, !tbaa !148
  %81 = zext i16 %80 to i32
  %82 = mul nsw i32 %75, %81
  %83 = load i32, ptr %13, align 4, !tbaa !9
  %84 = add nsw i32 %83, 1
  %85 = load ptr, ptr %16, align 8, !tbaa !142
  %86 = load i32, ptr %10, align 4, !tbaa !9
  %87 = sext i32 %86 to i64
  %88 = getelementptr inbounds i16, ptr %85, i64 %87
  %89 = load i16, ptr %88, align 2, !tbaa !148
  %90 = zext i16 %89 to i32
  %91 = mul nsw i32 %84, %90
  %92 = add nsw i32 %82, %91
  %93 = load i32, ptr %19, align 4, !tbaa !9
  %94 = shl i32 %92, %93
  store i32 %94, ptr %23, align 4, !tbaa !9
  call void @llvm.lifetime.start.p0(i64 4, ptr %24) #8
  %95 = load i32, ptr %22, align 4, !tbaa !9
  %96 = load i32, ptr %23, align 4, !tbaa !9
  %97 = add nsw i32 %95, %96
  %98 = load i32, ptr %20, align 4, !tbaa !9
  %99 = add nsw i32 %97, %98
  %100 = load i32, ptr %21, align 4, !tbaa !9
  %101 = ashr i32 %99, %100
  store i32 %101, ptr %24, align 4, !tbaa !9
  %102 = load i32, ptr %24, align 4, !tbaa !9
  %103 = trunc i32 %102 to i16
  %104 = load ptr, ptr %15, align 8, !tbaa !142
  %105 = load i32, ptr %13, align 4, !tbaa !9
  %106 = sext i32 %105 to i64
  %107 = load i64, ptr %12, align 8, !tbaa !146
  %108 = load i32, ptr %14, align 4, !tbaa !9
  %109 = sext i32 %108 to i64
  %110 = mul nsw i64 %107, %109
  %111 = add nsw i64 %106, %110
  %112 = getelementptr inbounds i16, ptr %104, i64 %111
  store i16 %103, ptr %112, align 2, !tbaa !148
  call void @llvm.lifetime.end.p0(i64 4, ptr %24) #8
  call void @llvm.lifetime.end.p0(i64 4, ptr %23) #8
  call void @llvm.lifetime.end.p0(i64 4, ptr %22) #8
  br label %113

113:                                              ; preds = %48
  %114 = load i32, ptr %13, align 4, !tbaa !9
  %115 = add nsw i32 %114, 1
  store i32 %115, ptr %13, align 4, !tbaa !9
  br label %44, !llvm.loop !329

116:                                              ; preds = %44
  br label %117

117:                                              ; preds = %116
  %118 = load i32, ptr %14, align 4, !tbaa !9
  %119 = add nsw i32 %118, 1
  store i32 %119, ptr %14, align 4, !tbaa !9
  br label %39, !llvm.loop !330

120:                                              ; preds = %39
  call void @llvm.lifetime.end.p0(i64 4, ptr %21) #8
  call void @llvm.lifetime.end.p0(i64 4, ptr %20) #8
  call void @llvm.lifetime.end.p0(i64 4, ptr %19) #8
  call void @llvm.lifetime.end.p0(i64 4, ptr %18) #8
  call void @llvm.lifetime.end.p0(i64 8, ptr %17) #8
  call void @llvm.lifetime.end.p0(i64 8, ptr %16) #8
  call void @llvm.lifetime.end.p0(i64 8, ptr %15) #8
  call void @llvm.lifetime.end.p0(i64 4, ptr %14) #8
  call void @llvm.lifetime.end.p0(i64 4, ptr %13) #8
  ret void
}